; Function Attrs: nounwind uwtable
define internal nonnull ptr @zend_generator_iterator_get_data(ptr noundef readonly captures(none) %0) #0 {
  %2 = getelementptr inbounds nuw i8, ptr %0, i64 56
  %3 = load ptr, ptr %2, align 8, !tbaa !24
  %4 = getelementptr inbounds nuw i8, ptr %3, i64 80
  %5 = load i8, ptr %4, align 8, !tbaa !24
  %6 = icmp eq i8 %5, 0
  br i1 %6, label %7, label %zend_generator_ensure_initialized.exit, !prof !26

7:                                                ; preds = %1
  %8 = getelementptr inbounds nuw i8, ptr %3, i64 56
  %9 = load ptr, ptr %8, align 8, !tbaa !56
  %.not.i4 = icmp eq ptr %9, null
  br i1 %.not.i4, label %zend_generator_ensure_initialized.exit, label %10, !prof !26

10:                                               ; preds = %7
  %11 = getelementptr inbounds nuw i8, ptr %3, i64 152
  %12 = load ptr, ptr %11, align 8, !tbaa !94
  %13 = icmp eq ptr %12, null
  br i1 %13, label %14, label %zend_generator_ensure_initialized.exit, !prof !58

14:                                               ; preds = %10
  tail call void @zend_generator_resume(ptr noundef nonnull %3)
  %15 = getelementptr inbounds nuw i8, ptr %3, i64 272
  %16 = load i8, ptr %15, align 8, !tbaa !99
  %17 = or i8 %16, 4
  store i8 %17, ptr %15, align 8, !tbaa !99
  br label %zend_generator_ensure_initialized.exit

zend_generator_ensure_initialized.exit:           ; preds = %1, %7, %10, %14
  %18 = getelementptr inbounds nuw i8, ptr %3, i64 152
  %19 = load ptr, ptr %18, align 8, !tbaa !94
  %20 = icmp eq ptr %19, null
  br i1 %20, label %zend_generator_get_current.exit, label %21, !prof !58

21:                                               ; preds = %zend_generator_ensure_initialized.exit
  %22 = getelementptr inbounds nuw i8, ptr %3, i64 176
  %23 = load ptr, ptr %22, align 8, !tbaa !24
  %.not.i = icmp eq ptr %23, null
  br i1 %.not.i, label %.preheader, label %31

.preheader:                                       ; preds = %21, %.preheader
  %.0.i5 = phi ptr [ %25, %.preheader ], [ %19, %21 ]
  %24 = getelementptr inbounds nuw i8, ptr %.0.i5, i64 152
  %25 = load ptr, ptr %24, align 8, !tbaa !94
  %.not.i6 = icmp eq ptr %25, null
  br i1 %.not.i6, label %26, label %.preheader

26:                                               ; preds = %.preheader
  %27 = getelementptr inbounds nuw i8, ptr %.0.i5, i64 176
  %28 = load ptr, ptr %27, align 8, !tbaa !24
  %.not8.i.i = icmp eq ptr %28, null
  br i1 %.not8.i.i, label %zend_generator_update_root.exit, label %29

29:                                               ; preds = %26
  %30 = getelementptr inbounds nuw i8, ptr %28, i64 176
  store ptr null, ptr %30, align 8, !tbaa !24
  store ptr null, ptr %27, align 8, !tbaa !24
  br label %zend_generator_update_root.exit

zend_generator_update_root.exit:                  ; preds = %26, %29
  store ptr %3, ptr %27, align 8, !tbaa !24
  store ptr %.0.i5, ptr %22, align 8, !tbaa !24
  br label %31

31:                                               ; preds = %zend_generator_update_root.exit, %21
  %.0.i = phi ptr [ %23, %21 ], [ %.0.i5, %zend_generator_update_root.exit ]
  %32 = getelementptr inbounds nuw i8, ptr %.0.i, i64 56
  %33 = load ptr, ptr %32, align 8, !tbaa !56
  %.not11.i = icmp eq ptr %33, null
  br i1 %.not11.i, label %34, label %zend_generator_get_current.exit, !prof !26

34:                                               ; preds = %31
  %35 = tail call ptr @zend_generator_update_current(ptr noundef nonnull %3)
  br label %zend_generator_get_current.exit

zend_generator_get_current.exit:                  ; preds = %zend_generator_ensure_initialized.exit, %31, %34
  %.09.i = phi ptr [ %3, %zend_generator_ensure_initialized.exit ], [ %35, %34 ], [ %.0.i, %31 ]
  %36 = getelementptr inbounds nuw i8, ptr %.09.i, i64 72
  ret ptr %36
}